; ModuleID = '20/1309.c'
source_filename = "20/1309.c"
target datalayout = "e-m:e-p270:32:32-p271:32:32-p272:64:64-i64:64-f80:128-n8:16:32:64-S128"
target triple = "x86_64-pc-linux-gnu"

@.str = private unnamed_addr constant [6 x i8] c"%s %s\00", align 1
@.str.1 = private unnamed_addr constant [4 x i8] c"%s\0A\00", align 1

; Function Attrs: noinline nounwind uwtable
define dso_local i32 @main() #0 {
  %1 = alloca i32, align 4
  %2 = alloca [14 x i8], align 1
  %3 = alloca i8, align 1
  %4 = alloca [4 x i8], align 1
  %5 = alloca i32, align 4
  %6 = alloca i32, align 4
  %7 = alloca i32, align 4
  %8 = alloca i32, align 4
  store i32 0, i32* %1, align 4
  br label %9

9:                                                ; preds = %93, %0
  %10 = getelementptr inbounds [14 x i8], [14 x i8]* %2, i64 0, i64 0
  %11 = getelementptr inbounds [4 x i8], [4 x i8]* %4, i64 0, i64 0
  %12 = call i32 (i8*, ...) @__isoc99_scanf(i8* getelementptr inbounds ([6 x i8], [6 x i8]* @.str, i64 0, i64 0), i8* %10, i8* %11)
  %13 = icmp ne i32 %12, -1
  br i1 %13, label %14, label %96

14:                                               ; preds = %9
  %15 = getelementptr inbounds [14 x i8], [14 x i8]* %2, i64 0, i64 0
  %16 = load i8, i8* %15, align 1
  store i8 %16, i8* %3, align 1
  store i32 0, i32* %6, align 4
  store i32 1, i32* %5, align 4
  br label %17

17:                                               ; preds = %43, %14
  %18 = load i32, i32* %5, align 4
  %19 = sext i32 %18 to i64
  %20 = getelementptr inbounds [14 x i8], [14 x i8]* %2, i64 0, i64 %19
  %21 = load i8, i8* %20, align 1
  %22 = sext i8 %21 to i32
  %23 = icmp eq i32 %22, 0
  br i1 %23, label %24, label %26

24:                                               ; preds = %17
  %25 = load i32, i32* %5, align 4
  store i32 %25, i32* %8, align 4
  br label %46

26:                                               ; preds = %17
  %27 = load i32, i32* %5, align 4
  %28 = sext i32 %27 to i64
  %29 = getelementptr inbounds [14 x i8], [14 x i8]* %2, i64 0, i64 %28
  %30 = load i8, i8* %29, align 1
  %31 = sext i8 %30 to i32
  %32 = load i8, i8* %3, align 1
  %33 = sext i8 %32 to i32
  %34 = icmp sgt i32 %31, %33
  br i1 %34, label %35, label %41

35:                                               ; preds = %26
  %36 = load i32, i32* %5, align 4
  %37 = sext i32 %36 to i64
  %38 = getelementptr inbounds [14 x i8], [14 x i8]* %2, i64 0, i64 %37
  %39 = load i8, i8* %38, align 1
  store i8 %39, i8* %3, align 1
  %40 = load i32, i32* %5, align 4
  store i32 %40, i32* %6, align 4
  br label %41

41:                                               ; preds = %35, %26
  br label %42

42:                                               ; preds = %41
  br label %43

43:                                               ; preds = %42
  %44 = load i32, i32* %5, align 4
  %45 = add nsw i32 %44, 1
  store i32 %45, i32* %5, align 4
  br label %17

46:                                               ; preds = %24
  %47 = load i32, i32* %8, align 4
  %48 = add nsw i32 %47, 3
  %49 = sext i32 %48 to i64
  %50 = getelementptr inbounds [14 x i8], [14 x i8]* %2, i64 0, i64 %49
  store i8 0, i8* %50, align 1
  %51 = load i32, i32* %8, align 4
  %52 = add nsw i32 %51, 2
  store i32 %52, i32* %5, align 4
  %53 = load i32, i32* %8, align 4
  %54 = sub nsw i32 %53, 1
  store i32 %54, i32* %7, align 4
  br label %55

55:                                               ; preds = %69, %46
  %56 = load i32, i32* %7, align 4
  %57 = sext i32 %56 to i64
  %58 = getelementptr inbounds [14 x i8], [14 x i8]* %2, i64 0, i64 %57
  %59 = load i8, i8* %58, align 1
  %60 = load i32, i32* %5, align 4
  %61 = sext i32 %60 to i64
  %62 = getelementptr inbounds [14 x i8], [14 x i8]* %2, i64 0, i64 %61
  store i8 %59, i8* %62, align 1
  %63 = load i32, i32* %7, align 4
  %64 = load i32, i32* %6, align 4
  %65 = add nsw i32 %64, 1
  %66 = icmp eq i32 %63, %65
  br i1 %66, label %67, label %68

67:                                               ; preds = %55
  br label %74

68:                                               ; preds = %55
  br label %69

69:                                               ; preds = %68
  %70 = load i32, i32* %5, align 4
  %71 = add nsw i32 %70, -1
  store i32 %71, i32* %5, align 4
  %72 = load i32, i32* %7, align 4
  %73 = add nsw i32 %72, -1
  store i32 %73, i32* %7, align 4
  br label %55

74:                                               ; preds = %67
  %75 = load i32, i32* %6, align 4
  %76 = add nsw i32 %75, 1
  store i32 %76, i32* %5, align 4
  store i32 0, i32* %7, align 4
  br label %77

77:                                               ; preds = %88, %74
  %78 = load i32, i32* %7, align 4
  %79 = icmp sle i32 %78, 2
  br i1 %79, label %80, label %93

80:                                               ; preds = %77
  %81 = load i32, i32* %7, align 4
  %82 = sext i32 %81 to i64
  %83 = getelementptr inbounds [4 x i8], [4 x i8]* %4, i64 0, i64 %82
  %84 = load i8, i8* %83, align 1
  %85 = load i32, i32* %5, align 4
  %86 = sext i32 %85 to i64
  %87 = getelementptr inbounds [14 x i8], [14 x i8]* %2, i64 0, i64 %86
  store i8 %84, i8* %87, align 1
  br label %88

88:                                               ; preds = %80
  %89 = load i32, i32* %5, align 4
  %90 = add nsw i32 %89, 1
  store i32 %90, i32* %5, align 4
  %91 = load i32, i32* %7, align 4
  %92 = add nsw i32 %91, 1
  store i32 %92, i32* %7, align 4
  br label %77

93:                                               ; preds = %77
  %94 = getelementptr inbounds [14 x i8], [14 x i8]* %2, i64 0, i64 0
  %95 = call i32 (i8*, ...) @printf(i8* getelementptr inbounds ([4 x i8], [4 x i8]* @.str.1, i64 0, i64 0), i8* %94)
  br label %9

96:                                               ; preds = %9
  %97 = load i32, i32* %1, align 4
  ret i32 %97
}

declare dso_local i32 @__isoc99_scanf(i8*, ...) #1

declare dso_local i32 @printf(i8*, ...) #1


!llvm.module.flags = !{!0}
!llvm.ident = !{!1}

!0 = !{i32 1, !"wchar_size", i32 4}
!1 = !{!"clang version 10.0.0-4ubuntu1 "}
